target datalayout = "e-m:e-p270:32:32-p271:32:32-p272:64:64-i64:64-i128:128-f80:128-n8:16:32:64-S128"
target triple = "x86_64-unknown-linux-gnu"

%"class.Assimp::MDLImporter" = type <{ %"class.Assimp::BaseImporter", i32, [4 x i8], %"class.std::__cxx11::basic_string", ptr, i32, [4 x i8], ptr, ptr, i32, %"struct.Assimp::MDL::HalfLife::HL1ImportSettings", [2 x i8] }>
%"class.Assimp::BaseImporter" = type { ptr, double, double, %"class.std::__cxx11::basic_string", %"class.std::__exception_ptr::exception_ptr", ptr }
%"class.std::__exception_ptr::exception_ptr" = type { ptr }
%"class.std::__cxx11::basic_string" = type { %"struct.std::__cxx11::basic_string<char>::_Alloc_hider", i64, %union.anon }
%"struct.std::__cxx11::basic_string<char>::_Alloc_hider" = type { ptr }
%union.anon = type { i64, [8 x i8] }
%"struct.Assimp::MDL::HalfLife::HL1ImportSettings" = type { i8, i8, i8, i8, i8, i8, i8, i8, i8, i8 }
%struct.aiScene = type { i32, ptr, i32, ptr, i32, ptr, i32, ptr, i32, ptr, i32, ptr, i32, ptr, ptr, %struct.aiString, i32, ptr, ptr }
%struct.aiString = type { i32, [1024 x i8] }
%struct.aiMesh = type { i32, i32, i32, ptr, ptr, ptr, ptr, [8 x ptr], [8 x ptr], [8 x i32], ptr, i32, ptr, i32, %struct.aiString, i32, ptr, i32, %struct.aiAABB, ptr }
%struct.aiAABB = type { %class.aiVector3t, %class.aiVector3t }
%class.aiVector3t = type { float, float, float }

@.str.86 = private unnamed_addr constant [15 x i8] c"&&&referrer&&&\00", align 1

; Function Attrs: mustprogress uwtable
define linkonce_odr hidden i32 @aiGetMaterialInteger(ptr noundef %pMat, ptr noundef %pKey, i32 noundef %type, i32 noundef %index, ptr noundef %pOut) #2 comdat {
entry:
  %pMat.addr = alloca ptr, align 8
  %pKey.addr = alloca ptr, align 8
  %type.addr = alloca i32, align 4
  %index.addr = alloca i32, align 4
  %pOut.addr = alloca ptr, align 8
  store ptr %pMat, ptr %pMat.addr, align 8
  store ptr %pKey, ptr %pKey.addr, align 8
  store i32 %type, ptr %type.addr, align 4
  store i32 %index, ptr %index.addr, align 4
  store ptr %pOut, ptr %pOut.addr, align 8
  %0 = load ptr, ptr %pMat.addr, align 8
  %1 = load ptr, ptr %pKey.addr, align 8
  %2 = load i32, ptr %type.addr, align 4
  %3 = load i32, ptr %index.addr, align 4
  %4 = load ptr, ptr %pOut.addr, align 8
  %call = call i32 @aiGetMaterialIntegerArray(ptr noundef %0, ptr noundef %1, i32 noundef %2, i32 noundef %3, ptr noundef %4, ptr noundef null)
  ret i32 %call
}

; Function Attrs: mustprogress uwtable
define hidden void @_ZN6Assimp11MDLImporter34HandleMaterialReferences_3DGS_MDL7Ev(ptr noundef nonnull align 8 dereferenceable(158) %this) #2 align 2 {
entry:
  %this.addr = alloca ptr, align 8
  %i = alloca i32, align 4
  %iIndex = alloca i32, align 4
  %a = alloca i32, align 4
  %pcMesh = alloca ptr, align 8
  %pp = alloca i32, align 4
  %a31 = alloca i32, align 4
  %pcMesh37 = alloca ptr, align 8
  store ptr %this, ptr %this.addr, align 8
  %this1 = load ptr, ptr %this.addr, align 8
  store i32 0, ptr %i, align 4
  br label %for.cond

for.cond:                                         ; preds = %for.inc57, %entry
  %0 = load i32, ptr %i, align 4
  %pScene = getelementptr inbounds %"class.Assimp::MDLImporter", ptr %this1, i32 0, i32 8
  %1 = load ptr, ptr %pScene, align 8
  %mNumMaterials = getelementptr inbounds %struct.aiScene, ptr %1, i32 0, i32 4
  %2 = load i32, ptr %mNumMaterials, align 8
  %cmp = icmp ult i32 %0, %2
  br i1 %cmp, label %for.body, label %for.end59

for.body:                                         ; preds = %for.cond
  store i32 0, ptr %iIndex, align 4
  %pScene2 = getelementptr inbounds %"class.Assimp::MDLImporter", ptr %this1, i32 0, i32 8
  %3 = load ptr, ptr %pScene2, align 8
  %mMaterials = getelementptr inbounds %struct.aiScene, ptr %3, i32 0, i32 5
  %4 = load ptr, ptr %mMaterials, align 8
  %5 = load i32, ptr %i, align 4
  %idxprom = zext i32 %5 to i64
  %arrayidx = getelementptr inbounds ptr, ptr %4, i64 %idxprom
  %6 = load ptr, ptr %arrayidx, align 8
  %call = call i32 @aiGetMaterialInteger(ptr noundef %6, ptr noundef @.str.86, i32 noundef 0, i32 noundef 0, ptr noundef %iIndex)
  %cmp3 = icmp eq i32 0, %call
  br i1 %cmp3, label %if.then, label %if.end56

if.then:                                          ; preds = %for.body
  store i32 0, ptr %a, align 4
  br label %for.cond4

for.cond4:                                        ; preds = %for.inc, %if.then
  %7 = load i32, ptr %a, align 4
  %pScene5 = getelementptr inbounds %"class.Assimp::MDLImporter", ptr %this1, i32 0, i32 8
  %8 = load ptr, ptr %pScene5, align 8
  %mNumMeshes = getelementptr inbounds %struct.aiScene, ptr %8, i32 0, i32 2
  %9 = load i32, ptr %mNumMeshes, align 8
  %cmp6 = icmp ult i32 %7, %9
  br i1 %cmp6, label %for.body7, label %for.end

for.body7:                                        ; preds = %for.cond4
  %pScene8 = getelementptr inbounds %"class.Assimp::MDLImporter", ptr %this1, i32 0, i32 8
  %10 = load ptr, ptr %pScene8, align 8
  %mMeshes = getelementptr inbounds %struct.aiScene, ptr %10, i32 0, i32 3
  %11 = load ptr, ptr %mMeshes, align 8
  %12 = load i32, ptr %a, align 4
  %idxprom9 = zext i32 %12 to i64
  %arrayidx10 = getelementptr inbounds ptr, ptr %11, i64 %idxprom9
  %13 = load ptr, ptr %arrayidx10, align 8
  store ptr %13, ptr %pcMesh, align 8
  %14 = load i32, ptr %i, align 4
  %15 = load ptr, ptr %pcMesh, align 8
  %mMaterialIndex = getelementptr inbounds %struct.aiMesh, ptr %15, i32 0, i32 13
  %16 = load i32, ptr %mMaterialIndex, align 8
  %cmp11 = icmp eq i32 %14, %16
  br i1 %cmp11, label %if.then12, label %if.end

if.then12:                                        ; preds = %for.body7
  %17 = load i32, ptr %iIndex, align 4
  %18 = load ptr, ptr %pcMesh, align 8
  %mMaterialIndex13 = getelementptr inbounds %struct.aiMesh, ptr %18, i32 0, i32 13
  store i32 %17, ptr %mMaterialIndex13, align 8
  br label %if.end

if.end:                                           ; preds = %if.then12, %for.body7
  br label %for.inc

for.inc:                                          ; preds = %if.end
  %19 = load i32, ptr %a, align 4
  %inc = add i32 %19, 1
  store i32 %inc, ptr %a, align 4
  br label %for.cond4, !llvm.loop !54

for.end:                                          ; preds = %for.cond4
  %pScene14 = getelementptr inbounds %"class.Assimp::MDLImporter", ptr %this1, i32 0, i32 8
  %20 = load ptr, ptr %pScene14, align 8
  %mMaterials15 = getelementptr inbounds %struct.aiScene, ptr %20, i32 0, i32 5
  %21 = load ptr, ptr %mMaterials15, align 8
  %22 = load i32, ptr %i, align 4
  %idxprom16 = zext i32 %22 to i64
  %arrayidx17 = getelementptr inbounds ptr, ptr %21, i64 %idxprom16
  %23 = load ptr, ptr %arrayidx17, align 8
  %isnull = icmp eq ptr %23, null
  br i1 %isnull, label %delete.end, label %delete.notnull

delete.notnull:                                   ; preds = %for.end
  call void @_ZN10aiMaterialD1Ev(ptr noundef nonnull align 8 dereferenceable(16) %23) #16
  call void @_ZdlPv(ptr noundef %23) #19
  br label %delete.end

delete.end:                                       ; preds = %delete.notnull, %for.end
  %24 = load i32, ptr %i, align 4
  store i32 %24, ptr %pp, align 4
  br label %for.cond18

for.cond18:                                       ; preds = %for.inc50, %delete.end
  %25 = load i32, ptr %pp, align 4
  %pScene19 = getelementptr inbounds %"class.Assimp::MDLImporter", ptr %this1, i32 0, i32 8
  %26 = load ptr, ptr %pScene19, align 8
  %mNumMaterials20 = getelementptr inbounds %struct.aiScene, ptr %26, i32 0, i32 4
  %27 = load i32, ptr %mNumMaterials20, align 8
  %sub = sub i32 %27, 1
  %cmp21 = icmp ult i32 %25, %sub
  br i1 %cmp21, label %for.body22, label %for.end52

for.body22:                                       ; preds = %for.cond18
  %pScene23 = getelementptr inbounds %"class.Assimp::MDLImporter", ptr %this1, i32 0, i32 8
  %28 = load ptr, ptr %pScene23, align 8
  %mMaterials24 = getelementptr inbounds %struct.aiScene, ptr %28, i32 0, i32 5
  %29 = load ptr, ptr %mMaterials24, align 8
  %30 = load i32, ptr %pp, align 4
  %add = add i32 %30, 1
  %idxprom25 = zext i32 %add to i64
  %arrayidx26 = getelementptr inbounds ptr, ptr %29, i64 %idxprom25
  %31 = load ptr, ptr %arrayidx26, align 8
  %pScene27 = getelementptr inbounds %"class.Assimp::MDLImporter", ptr %this1, i32 0, i32 8
  %32 = load ptr, ptr %pScene27, align 8
  %mMaterials28 = getelementptr inbounds %struct.aiScene, ptr %32, i32 0, i32 5
  %33 = load ptr, ptr %mMaterials28, align 8
  %34 = load i32, ptr %pp, align 4
  %idxprom29 = zext i32 %34 to i64
  %arrayidx30 = getelementptr inbounds ptr, ptr %33, i64 %idxprom29
  store ptr %31, ptr %arrayidx30, align 8
  store i32 0, ptr %a31, align 4
  br label %for.cond32

for.cond32:                                       ; preds = %for.inc47, %for.body22
  %35 = load i32, ptr %a31, align 4
  %pScene33 = getelementptr inbounds %"class.Assimp::MDLImporter", ptr %this1, i32 0, i32 8
  %36 = load ptr, ptr %pScene33, align 8
  %mNumMeshes34 = getelementptr inbounds %struct.aiScene, ptr %36, i32 0, i32 2
  %37 = load i32, ptr %mNumMeshes34, align 8
  %cmp35 = icmp ult i32 %35, %37
  br i1 %cmp35, label %for.body36, label %for.end49

for.body36:                                       ; preds = %for.cond32
  %pScene38 = getelementptr inbounds %"class.Assimp::MDLImporter", ptr %this1, i32 0, i32 8
  %38 = load ptr, ptr %pScene38, align 8
  %mMeshes39 = getelementptr inbounds %struct.aiScene, ptr %38, i32 0, i32 3
  %39 = load ptr, ptr %mMeshes39, align 8
  %40 = load i32, ptr %a31, align 4
  %idxprom40 = zext i32 %40 to i64
  %arrayidx41 = getelementptr inbounds ptr, ptr %39, i64 %idxprom40
  %41 = load ptr, ptr %arrayidx41, align 8
  store ptr %41, ptr %pcMesh37, align 8
  %42 = load ptr, ptr %pcMesh37, align 8
  %mMaterialIndex42 = getelementptr inbounds %struct.aiMesh, ptr %42, i32 0, i32 13
  %43 = load i32, ptr %mMaterialIndex42, align 8
  %44 = load i32, ptr %i, align 4
  %cmp43 = icmp ugt i32 %43, %44
  br i1 %cmp43, label %if.then44, label %if.end46

if.then44:                                        ; preds = %for.body36
  %45 = load ptr, ptr %pcMesh37, align 8
  %mMaterialIndex45 = getelementptr inbounds %struct.aiMesh, ptr %45, i32 0, i32 13
  %46 = load i32, ptr %mMaterialIndex45, align 8
  %dec = add i32 %46, -1
  store i32 %dec, ptr %mMaterialIndex45, align 8
  br label %if.end46

if.end46:                                         ; preds = %if.then44, %for.body36
  br label %for.inc47

for.inc47:                                        ; preds = %if.end46
  %47 = load i32, ptr %a31, align 4
  %inc48 = add i32 %47, 1
  store i32 %inc48, ptr %a31, align 4
  br label %for.cond32, !llvm.loop !55

for.end49:                                        ; preds = %for.cond32
  br label %for.inc50

for.inc50:                                        ; preds = %for.end49
  %48 = load i32, ptr %pp, align 4
  %inc51 = add i32 %48, 1
  store i32 %inc51, ptr %pp, align 4
  br label %for.cond18, !llvm.loop !56

for.end52:                                        ; preds = %for.cond18
  %pScene53 = getelementptr inbounds %"class.Assimp::MDLImporter", ptr %this1, i32 0, i32 8
  %49 = load ptr, ptr %pScene53, align 8
  %mNumMaterials54 = getelementptr inbounds %struct.aiScene, ptr %49, i32 0, i32 4
  %50 = load i32, ptr %mNumMaterials54, align 8
  %dec55 = add i32 %50, -1
  store i32 %dec55, ptr %mNumMaterials54, align 8
  br label %if.end56

if.end56:                                         ; preds = %for.end52, %for.body
  br label %for.inc57

for.inc57:                                        ; preds = %if.end56
  %51 = load i32, ptr %i, align 4
  %inc58 = add i32 %51, 1
  store i32 %inc58, ptr %i, align 4
  br label %for.cond, !llvm.loop !57

for.end59:                                        ; preds = %for.cond
  ret void
}