; Function Attrs: mustprogress uwtable
define hidden void @_ZN6Assimp11MDLImporter34HandleMaterialReferences_3DGS_MDL7Ev(ptr nocapture noundef nonnull readonly align 8 dereferenceable(158) %this) local_unnamed_addr #2 align 2 {
entry:
  %iIndex = alloca i32, align 4
  %pScene = getelementptr inbounds i8, ptr %this, i64 136
  %0 = load ptr, ptr %pScene, align 8
  %mNumMaterials30 = getelementptr inbounds i8, ptr %0, i64 32
  %1 = load i32, ptr %mNumMaterials30, align 8
  %cmp31.not = icmp eq i32 %1, 0
  br i1 %cmp31.not, label %for.end59, label %for.body

for.body:                                         ; preds = %entry, %for.inc57
  %indvars.iv41 = phi i64 [ %indvars.iv.next42, %for.inc57 ], [ 0, %entry ]
  %2 = phi ptr [ %37, %for.inc57 ], [ %0, %entry ]
  store i32 0, ptr %iIndex, align 4
  %mMaterials = getelementptr inbounds i8, ptr %2, i64 40
  %3 = load ptr, ptr %mMaterials, align 8
  %arrayidx = getelementptr inbounds ptr, ptr %3, i64 %indvars.iv41
  %4 = load ptr, ptr %arrayidx, align 8
  %call.i = call i32 @aiGetMaterialIntegerArray(ptr noundef %4, ptr noundef nonnull @.str.86, i32 noundef 0, i32 noundef 0, ptr noundef nonnull %iIndex, ptr noundef null)
  %cmp3 = icmp eq i32 %call.i, 0
  br i1 %cmp3, label %for.cond4.preheader, label %for.inc57

for.cond4.preheader:                              ; preds = %for.body
  %5 = load ptr, ptr %pScene, align 8
  %mNumMeshes17 = getelementptr inbounds i8, ptr %5, i64 16
  %6 = load i32, ptr %mNumMeshes17, align 8
  %cmp618.not = icmp eq i32 %6, 0
  br i1 %cmp618.not, label %for.end, label %for.body7.lr.ph

for.body7.lr.ph:                                  ; preds = %for.cond4.preheader
  %7 = load i32, ptr %iIndex, align 4
  br label %for.body7

for.body7:                                        ; preds = %for.body7.lr.ph, %for.inc
  %8 = phi ptr [ %5, %for.body7.lr.ph ], [ %13, %for.inc ]
  %indvars.iv = phi i64 [ 0, %for.body7.lr.ph ], [ %indvars.iv.next, %for.inc ]
  %mMeshes = getelementptr inbounds i8, ptr %8, i64 24
  %9 = load ptr, ptr %mMeshes, align 8
  %arrayidx10 = getelementptr inbounds ptr, ptr %9, i64 %indvars.iv
  %10 = load ptr, ptr %arrayidx10, align 8
  %mMaterialIndex = getelementptr inbounds i8, ptr %10, i64 232
  %11 = load i32, ptr %mMaterialIndex, align 8
  %12 = zext i32 %11 to i64
  %cmp11 = icmp eq i64 %indvars.iv41, %12
  br i1 %cmp11, label %if.then12, label %for.inc

if.then12:                                        ; preds = %for.body7
  store i32 %7, ptr %mMaterialIndex, align 8
  %.pre = load ptr, ptr %pScene, align 8
  br label %for.inc

for.inc:                                          ; preds = %for.body7, %if.then12
  %13 = phi ptr [ %8, %for.body7 ], [ %.pre, %if.then12 ]
  %indvars.iv.next = add nuw nsw i64 %indvars.iv, 1
  %mNumMeshes = getelementptr inbounds i8, ptr %13, i64 16
  %14 = load i32, ptr %mNumMeshes, align 8
  %15 = zext i32 %14 to i64
  %cmp6 = icmp ult i64 %indvars.iv.next, %15
  br i1 %cmp6, label %for.body7, label %for.end, !llvm.loop !65

for.end:                                          ; preds = %for.inc, %for.cond4.preheader
  %.lcssa = phi ptr [ %5, %for.cond4.preheader ], [ %13, %for.inc ]
  %mMaterials15 = getelementptr inbounds i8, ptr %.lcssa, i64 40
  %16 = load ptr, ptr %mMaterials15, align 8
  %arrayidx17 = getelementptr inbounds ptr, ptr %16, i64 %indvars.iv41
  %17 = load ptr, ptr %arrayidx17, align 8
  %isnull = icmp eq ptr %17, null
  br i1 %isnull, label %delete.end, label %delete.notnull

delete.notnull:                                   ; preds = %for.end
  call void @_ZN10aiMaterialD1Ev(ptr noundef nonnull align 8 dereferenceable(16) %17) #24
  call void @_ZdlPv(ptr noundef nonnull %17) #27
  %.pre47 = load ptr, ptr %pScene, align 8
  br label %delete.end

delete.end:                                       ; preds = %delete.notnull, %for.end
  %18 = phi ptr [ %.pre47, %delete.notnull ], [ %.lcssa, %for.end ]
  %mNumMaterials2024 = getelementptr inbounds i8, ptr %18, i64 32
  %19 = load i32, ptr %mNumMaterials2024, align 8
  %sub25 = add i32 %19, -1
  %20 = zext i32 %sub25 to i64
  %cmp2126 = icmp ult i64 %indvars.iv41, %20
  br i1 %cmp2126, label %for.body22, label %for.end52

for.cond18.loopexit:                              ; preds = %for.inc47, %for.body22
  %21 = phi ptr [ %27, %for.body22 ], [ %34, %for.inc47 ]
  %mNumMaterials20 = getelementptr inbounds i8, ptr %21, i64 32
  %22 = load i32, ptr %mNumMaterials20, align 8
  %sub = add i32 %22, -1
  %23 = zext i32 %sub to i64
  %cmp21 = icmp ult i64 %indvars.iv.next44, %23
  br i1 %cmp21, label %for.body22, label %for.end52, !llvm.loop !66

for.body22:                                       ; preds = %delete.end, %for.cond18.loopexit
  %indvars.iv43 = phi i64 [ %indvars.iv.next44, %for.cond18.loopexit ], [ %indvars.iv41, %delete.end ]
  %24 = phi ptr [ %21, %for.cond18.loopexit ], [ %18, %delete.end ]
  %mMaterials24 = getelementptr inbounds i8, ptr %24, i64 40
  %25 = load ptr, ptr %mMaterials24, align 8
  %indvars.iv.next44 = add nuw nsw i64 %indvars.iv43, 1
  %arrayidx26 = getelementptr inbounds ptr, ptr %25, i64 %indvars.iv.next44
  %26 = load ptr, ptr %arrayidx26, align 8
  %arrayidx30 = getelementptr inbounds ptr, ptr %25, i64 %indvars.iv43
  store ptr %26, ptr %arrayidx30, align 8
  %27 = load ptr, ptr %pScene, align 8
  %mNumMeshes3420 = getelementptr inbounds i8, ptr %27, i64 16
  %28 = load i32, ptr %mNumMeshes3420, align 8
  %cmp3521.not = icmp eq i32 %28, 0
  br i1 %cmp3521.not, label %for.cond18.loopexit, label %for.body36

for.body36:                                       ; preds = %for.body22, %for.inc47
  %29 = phi ptr [ %34, %for.inc47 ], [ %27, %for.body22 ]
  %indvars.iv38 = phi i64 [ %indvars.iv.next39, %for.inc47 ], [ 0, %for.body22 ]
  %mMeshes39 = getelementptr inbounds i8, ptr %29, i64 24
  %30 = load ptr, ptr %mMeshes39, align 8
  %arrayidx41 = getelementptr inbounds ptr, ptr %30, i64 %indvars.iv38
  %31 = load ptr, ptr %arrayidx41, align 8
  %mMaterialIndex42 = getelementptr inbounds i8, ptr %31, i64 232
  %32 = load i32, ptr %mMaterialIndex42, align 8
  %33 = zext i32 %32 to i64
  %cmp43 = icmp ult i64 %indvars.iv41, %33
  br i1 %cmp43, label %if.then44, label %for.inc47

if.then44:                                        ; preds = %for.body36
  %dec = add i32 %32, -1
  store i32 %dec, ptr %mMaterialIndex42, align 8
  %.pre48 = load ptr, ptr %pScene, align 8
  br label %for.inc47

for.inc47:                                        ; preds = %for.body36, %if.then44
  %34 = phi ptr [ %29, %for.body36 ], [ %.pre48, %if.then44 ]
  %indvars.iv.next39 = add nuw nsw i64 %indvars.iv38, 1
  %mNumMeshes34 = getelementptr inbounds i8, ptr %34, i64 16
  %35 = load i32, ptr %mNumMeshes34, align 8
  %36 = zext i32 %35 to i64
  %cmp35 = icmp ult i64 %indvars.iv.next39, %36
  br i1 %cmp35, label %for.body36, label %for.cond18.loopexit, !llvm.loop !67

for.end52:                                        ; preds = %for.cond18.loopexit, %delete.end
  %.lcssa23 = phi ptr [ %18, %delete.end ], [ %21, %for.cond18.loopexit ]
  %sub.lcssa = phi i32 [ %sub25, %delete.end ], [ %sub, %for.cond18.loopexit ]
  %mNumMaterials20.le = getelementptr inbounds i8, ptr %.lcssa23, i64 32
  store i32 %sub.lcssa, ptr %mNumMaterials20.le, align 8
  br label %for.inc57

for.inc57:                                        ; preds = %for.body, %for.end52
  %indvars.iv.next42 = add nuw nsw i64 %indvars.iv41, 1
  %37 = load ptr, ptr %pScene, align 8
  %mNumMaterials = getelementptr inbounds i8, ptr %37, i64 32
  %38 = load i32, ptr %mNumMaterials, align 8
  %39 = zext i32 %38 to i64
  %cmp = icmp ult i64 %indvars.iv.next42, %39
  br i1 %cmp, label %for.body, label %for.end59, !llvm.loop !68

for.end59:                                        ; preds = %for.inc57, %entry
  ret void
}